(dp1
S'OriginalConfig'
p2
ccopy_reg
_reconstructor
p3
(cWMCore.Configuration
Configuration
p4
c__builtin__
object
p5
NtRp6
(dp7
S'Site'
p8
g3
(cWMCore.Configuration
ConfigSection
p9
g5
NtRp10
(dp11
S'_internal_skipChecks'
p12
I00
sS'_internal_documentation'
p13
S''
sS'_internal_settings'
p14
c__builtin__
set
p15
((lp16
S'whitelist'
p17
aS'storageSite'
p18
atRp19
sS'_internal_name'
p20
g8
sS'_internal_docstrings'
p21
(dp22
sS'_internal_children'
p23
g15
((ltRp24
sg18
S'T3_CH_PSI'
p25
sS'_internal_parent_ref'
p26
Nsg17
(lp27
S'T2_CH_CSCS'
p28
aS'T2_IT_Legnaro'
p29
aS'T2_UK_London_IC'
p30
aS'T2_UK_SGrid_Bristol'
p31
aS'T2_DE_DESY'
p32
aS'T2_ES_CIEMAT'
p33
aS'T2_IT_Rome'
p34
aS'T2_AT_Vienna'
p35
aS'T2_DE_RWTH'
p36
aS'T2_FR_GRIF_IRFU'
p37
aS'T2_HU_Budapest'
p38
aS'T2_FR_IPHC'
p39
aS'T2_BE_IIHE'
p40
aS'T2_IT_Pisa'
p41
aS'T2_ES_IFCA'
p42
aS'T2_UK_London_Brunel'
p43
aS'T2_US_Purdue'
p44
aS'T2_UA_KIPT'
p45
aS'T2_US_MIT'
p46
aS'T2_US_Wisconsin'
p47
aS'T2_US_UCSD'
p48
aS'T2_US_Vanderbilt'
p49
aS'T2_US_Caltech'
p50
asbsS'_internal_sections'
p51
(lp52
S'General'
p53
aS'JobType'
p54
aS'Data'
p55
ag8
asg53
g3
(g9
g5
NtRp56
(dp57
S'workArea'
p58
S'crab_HN3L_M_2_V_0p01_mu_massiveAndCKM_LO_sig_22_2_19'
p59
sg12
I00
sg13
S''
sg14
g15
((lp60
g58
aS'transferLogs'
p61
aS'requestName'
p62
atRp63
sg20
g53
sg21
(dp64
sg23
g15
((ltRp65
sg62
S'HN3L_M_2_V_0p01_mu_massiveAndCKM_LO_HNL_94X'
p66
sg26
Nsg61
I01
sbsS'_internal_webapps'
p67
(lp68
sS'_internal_components'
p69
(lp70
sg55
g3
(g9
g5
NtRp71
(dp72
S'outputDatasetTag'
p73
S'HN3L_M_2_V_0p01_mu_massiveAndCKM_LO'
p74
sS'outputPrimaryDataset'
p75
S'sig_22_2_19'
p76
sg12
I00
sS'splitting'
p77
S'EventBased'
p78
sS'unitsPerJob'
p79
I10
sg13
S''
sg14
g15
((lp80
g73
aS'publication'
p81
ag79
aS'ignoreLocality'
p82
aS'inputDBS'
p83
ag77
aS'outLFNDirBase'
p84
ag75
aS'totalUnits'
p85
atRp86
sg82
I01
sg20
g55
sg83
S'global'
p87
sg21
(dp88
sg85
I10
sg23
g15
((ltRp89
sg84
S'/store/user/vstampf/crab/HNL_94X'
p90
sg26
Nsg81
I00
sbsg54
g3
(g9
g5
NtRp91
(dp92
S'outputFiles'
p93
(lp94
S'tree.root'
p95
aS'RLTInfo.root'
p96
aS'heppyOutput.tgz'
p97
asg12
I00
sS'scriptArgs'
p98
(lp99
S'dataset=HN3L_M_2_V_0p01_mu_massiveAndCKM_LO'
p100
aS'total=1'
p101
aS'useAAA=full'
p102
aS'cfgfile=hn3l_eee_cfg.py'
p103
aS'filestounpack=tree.root,RLTInfo.root'
p104
asg13
S''
sg14
g15
((lp105
g93
ag98
aS'disableAutomaticOutputCollection'
p106
aS'scriptExe'
p107
aS'pluginName'
p108
aS'psetName'
p109
aS'inputFiles'
p110
atRp111
sg20
g54
sg107
S'heppy_crab_script.sh'
p112
sg21
(dp113
sg108
S'PrivateMC'
p114
sg23
g15
((ltRp115
sg109
S'heppy_crab_fake_pset.py'
p116
sg26
Nsg110
(lp117
S'FrameworkJobReport.xml'
p118
aS'heppy_crab_script.py'
p119
aS'cmgdataset.tar.gz'
p120
aS'python.tar.gz'
p121
aS'cafpython.tar.gz'
p122
aS'options.json'
p123
aS'../hn3l_eee_cfg.py'
p124
asg106
I01
sbsbsS'voGroup'
p125
S''
sS'Server'
p126
S'cmsweb.cern.ch'
p127
sS'instance'
p128
S'prod'
p129
sS'RequestName'
p130
V190226_145810:vstampf_crab_HN3L_M_2_V_0p01_mu_massiveAndCKM_LO_HNL_94X
p131
sS'voRole'
p132
S'NULL'
p133
sS'Port'
p134
S''
s.